target datalayout = "e-m:e-p270:32:32-p271:32:32-p272:64:64-i64:64-i128:128-f80:128-n8:16:32:64-S128"
target triple = "x86_64-pc-linux-gnu"

%class.JfrPostBox = type <{ i64, i64, i32, i8, [3 x i8] }>

@JfrMsg_lock = external global ptr, align 8

; Function Attrs: mustprogress nounwind uwtable
define hidden void @_ZN10JfrPostBox14notify_waitersEv(ptr noundef nonnull align 8 dereferenceable(21) %0) #1 align 2 {
  %2 = alloca ptr, align 8
  store ptr %0, ptr %2, align 8
  %3 = load ptr, ptr %2, align 8
  %4 = getelementptr inbounds %class.JfrPostBox, ptr %3, i32 0, i32 3
  %5 = load i8, ptr %4, align 4
  %6 = trunc i8 %5 to i1
  br i1 %6, label %8, label %7

7:                                                ; preds = %1
  br label %14

8:                                                ; preds = %1
  %9 = getelementptr inbounds %class.JfrPostBox, ptr %3, i32 0, i32 3
  store i8 0, ptr %9, align 4
  %10 = getelementptr inbounds %class.JfrPostBox, ptr %3, i32 0, i32 1
  %11 = load i64, ptr %10, align 8
  %12 = add i64 %11, 1
  store i64 %12, ptr %10, align 8
  %13 = load ptr, ptr @JfrMsg_lock, align 8
  call void @_ZN7Monitor6notifyEv(ptr noundef nonnull align 8 dereferenceable(104) %13)
  br label %14

14:                                               ; preds = %8, %7
  ret void
}