; Function Attrs: mustprogress nounwind uwtable
define hidden void @_ZN10JfrPostBox14notify_waitersEv(ptr nocapture noundef nonnull align 8 dereferenceable(21) %0) local_unnamed_addr #1 align 2 {
  %2 = getelementptr inbounds i8, ptr %0, i64 20
  %3 = load i8, ptr %2, align 4
  %4 = trunc i8 %3 to i1
  br i1 %4, label %5, label %10

5:                                                ; preds = %1
  store i8 0, ptr %2, align 4
  %6 = getelementptr inbounds i8, ptr %0, i64 8
  %7 = load i64, ptr %6, align 8
  %8 = add i64 %7, 1
  store i64 %8, ptr %6, align 8
  %9 = load ptr, ptr @JfrMsg_lock, align 8
  tail call void @_ZN7Monitor6notifyEv(ptr noundef nonnull align 8 dereferenceable(104) %9) #10
  br label %10

10:                                               ; preds = %1, %5
  ret void
}